; Function Attrs: nounwind sspstrong uwtable
define dso_local i64 @rb_hash_delete_entry(i64 noundef %0, i64 noundef %1) local_unnamed_addr #0 {
  %3 = alloca i64, align 8
  %4 = alloca i64, align 8
  call void @llvm.lifetime.start.p0(i64 8, ptr nonnull %3) #28
  store i64 %1, ptr %3, align 8, !tbaa !7
  call void @llvm.lifetime.start.p0(i64 8, ptr nonnull %4) #28
  %5 = call i32 @rb_hash_stlike_delete(i64 noundef %0, ptr noundef nonnull %3, ptr noundef nonnull %4)
  %.not = icmp eq i32 %5, 0
  %6 = load i64, ptr %4, align 8
  %.0 = select i1 %.not, i64 36, i64 %6
  call void @llvm.lifetime.end.p0(i64 8, ptr nonnull %4) #28
  call void @llvm.lifetime.end.p0(i64 8, ptr nonnull %3) #28
  ret i64 %.0
}